; ModuleID = '48/1644.c'
source_filename = "48/1644.c"
target datalayout = "e-m:e-p270:32:32-p271:32:32-p272:64:64-i64:64-f80:128-n8:16:32:64-S128"
target triple = "x86_64-pc-linux-gnu"

@__const.main.around = private unnamed_addr constant [8 x [2 x i32]] [[2 x i32] [i32 1, i32 0], [2 x i32] [i32 -1, i32 0], [2 x i32] [i32 0, i32 1], [2 x i32] [i32 0, i32 -1], [2 x i32] [i32 1, i32 1], [2 x i32] [i32 1, i32 -1], [2 x i32] [i32 -1, i32 1], [2 x i32] [i32 -1, i32 -1]], align 16
@.str = private unnamed_addr constant [6 x i8] c"%d %d\00", align 1
@.str.1 = private unnamed_addr constant [4 x i8] c"%d \00", align 1
@.str.2 = private unnamed_addr constant [4 x i8] c"%d\0A\00", align 1

; Function Attrs: noinline nounwind uwtable
define dso_local i32 @main() #0 {
  %1 = alloca i32, align 4
  %2 = alloca i32, align 4
  %3 = alloca i32, align 4
  %4 = alloca i32, align 4
  %5 = alloca i32, align 4
  %6 = alloca i32, align 4
  %7 = alloca i32, align 4
  %8 = alloca [9 x [9 x i32]], align 16
  %9 = alloca [9 x [9 x i32]], align 16
  %10 = alloca [9 x [9 x i32]], align 16
  %11 = alloca [8 x [2 x i32]], align 16
  store i32 0, i32* %1, align 4
  store i32 0, i32* %2, align 4
  store i32 0, i32* %3, align 4
  store i32 0, i32* %4, align 4
  store i32 0, i32* %5, align 4
  store i32 0, i32* %6, align 4
  %12 = bitcast [9 x [9 x i32]]* %8 to i8*
  call void @llvm.memset.p0i8.i64(i8* align 16 %12, i8 0, i64 324, i1 false)
  %13 = bitcast [9 x [9 x i32]]* %9 to i8*
  call void @llvm.memset.p0i8.i64(i8* align 16 %13, i8 0, i64 324, i1 false)
  %14 = bitcast [9 x [9 x i32]]* %10 to i8*
  call void @llvm.memset.p0i8.i64(i8* align 16 %14, i8 0, i64 324, i1 false)
  %15 = bitcast [8 x [2 x i32]]* %11 to i8*
  call void @llvm.memcpy.p0i8.p0i8.i64(i8* align 16 %15, i8* align 16 bitcast ([8 x [2 x i32]]* @__const.main.around to i8*), i64 64, i1 false)
  %16 = call i32 (i8*, ...) @__isoc99_scanf(i8* getelementptr inbounds ([6 x i8], [6 x i8]* @.str, i64 0, i64 0), i32* %2, i32* %3)
  %17 = load i32, i32* %2, align 4
  %18 = getelementptr inbounds [9 x [9 x i32]], [9 x [9 x i32]]* %8, i64 0, i64 4
  %19 = getelementptr inbounds [9 x i32], [9 x i32]* %18, i64 0, i64 4
  store i32 %17, i32* %19, align 16
  store i32 0, i32* %4, align 4
  br label %20

20:                                               ; preds = %134, %0
  %21 = load i32, i32* %4, align 4
  %22 = load i32, i32* %3, align 4
  %23 = icmp slt i32 %21, %22
  br i1 %23, label %24, label %137

24:                                               ; preds = %20
  %25 = load i32, i32* %4, align 4
  %26 = icmp ne i32 %25, 0
  br i1 %26, label %27, label %34

27:                                               ; preds = %24
  %28 = getelementptr inbounds [9 x [9 x i32]], [9 x [9 x i32]]* %8, i64 0, i64 0
  %29 = bitcast [9 x i32]* %28 to i8*
  %30 = getelementptr inbounds [9 x [9 x i32]], [9 x [9 x i32]]* %9, i64 0, i64 0
  %31 = bitcast [9 x i32]* %30 to i8*
  call void @llvm.memcpy.p0i8.p0i8.i64(i8* align 16 %29, i8* align 16 %31, i64 324, i1 false)
  %32 = getelementptr inbounds [9 x [9 x i32]], [9 x [9 x i32]]* %9, i64 0, i64 0
  %33 = bitcast [9 x i32]* %32 to i8*
  call void @llvm.memset.p0i8.i64(i8* align 16 %33, i8 0, i64 324, i1 false)
  br label %34

34:                                               ; preds = %27, %24
  %35 = load i32, i32* %4, align 4
  %36 = sub nsw i32 4, %35
  store i32 %36, i32* %7, align 4
  br label %37

37:                                               ; preds = %130, %34
  %38 = load i32, i32* %7, align 4
  %39 = load i32, i32* %4, align 4
  %40 = add nsw i32 4, %39
  %41 = icmp sle i32 %38, %40
  br i1 %41, label %42, label %133

42:                                               ; preds = %37
  %43 = load i32, i32* %4, align 4
  %44 = sub nsw i32 4, %43
  store i32 %44, i32* %6, align 4
  br label %45

45:                                               ; preds = %126, %42
  %46 = load i32, i32* %6, align 4
  %47 = load i32, i32* %4, align 4
  %48 = add nsw i32 4, %47
  %49 = icmp sle i32 %46, %48
  br i1 %49, label %50, label %129

50:                                               ; preds = %45
  %51 = load i32, i32* %7, align 4
  %52 = sext i32 %51 to i64
  %53 = getelementptr inbounds [9 x [9 x i32]], [9 x [9 x i32]]* %9, i64 0, i64 %52
  %54 = load i32, i32* %6, align 4
  %55 = sext i32 %54 to i64
  %56 = getelementptr inbounds [9 x i32], [9 x i32]* %53, i64 0, i64 %55
  %57 = load i32, i32* %56, align 4
  %58 = load i32, i32* %7, align 4
  %59 = sext i32 %58 to i64
  %60 = getelementptr inbounds [9 x [9 x i32]], [9 x [9 x i32]]* %8, i64 0, i64 %59
  %61 = load i32, i32* %6, align 4
  %62 = sext i32 %61 to i64
  %63 = getelementptr inbounds [9 x i32], [9 x i32]* %60, i64 0, i64 %62
  %64 = load i32, i32* %63, align 4
  %65 = mul nsw i32 2, %64
  %66 = add nsw i32 %57, %65
  %67 = load i32, i32* %7, align 4
  %68 = sext i32 %67 to i64
  %69 = getelementptr inbounds [9 x [9 x i32]], [9 x [9 x i32]]* %9, i64 0, i64 %68
  %70 = load i32, i32* %6, align 4
  %71 = sext i32 %70 to i64
  %72 = getelementptr inbounds [9 x i32], [9 x i32]* %69, i64 0, i64 %71
  store i32 %66, i32* %72, align 4
  store i32 0, i32* %5, align 4
  br label %73

73:                                               ; preds = %122, %50
  %74 = load i32, i32* %5, align 4
  %75 = icmp slt i32 %74, 8
  br i1 %75, label %76, label %125

76:                                               ; preds = %73
  %77 = load i32, i32* %7, align 4
  %78 = load i32, i32* %5, align 4
  %79 = sext i32 %78 to i64
  %80 = getelementptr inbounds [8 x [2 x i32]], [8 x [2 x i32]]* %11, i64 0, i64 %79
  %81 = getelementptr inbounds [2 x i32], [2 x i32]* %80, i64 0, i64 0
  %82 = load i32, i32* %81, align 8
  %83 = add nsw i32 %77, %82
  %84 = sext i32 %83 to i64
  %85 = getelementptr inbounds [9 x [9 x i32]], [9 x [9 x i32]]* %9, i64 0, i64 %84
  %86 = load i32, i32* %6, align 4
  %87 = load i32, i32* %5, align 4
  %88 = sext i32 %87 to i64
  %89 = getelementptr inbounds [8 x [2 x i32]], [8 x [2 x i32]]* %11, i64 0, i64 %88
  %90 = getelementptr inbounds [2 x i32], [2 x i32]* %89, i64 0, i64 1
  %91 = load i32, i32* %90, align 4
  %92 = add nsw i32 %86, %91
  %93 = sext i32 %92 to i64
  %94 = getelementptr inbounds [9 x i32], [9 x i32]* %85, i64 0, i64 %93
  %95 = load i32, i32* %94, align 4
  %96 = load i32, i32* %7, align 4
  %97 = sext i32 %96 to i64
  %98 = getelementptr inbounds [9 x [9 x i32]], [9 x [9 x i32]]* %8, i64 0, i64 %97
  %99 = load i32, i32* %6, align 4
  %100 = sext i32 %99 to i64
  %101 = getelementptr inbounds [9 x i32], [9 x i32]* %98, i64 0, i64 %100
  %102 = load i32, i32* %101, align 4
  %103 = add nsw i32 %95, %102
  %104 = load i32, i32* %7, align 4
  %105 = load i32, i32* %5, align 4
  %106 = sext i32 %105 to i64
  %107 = getelementptr inbounds [8 x [2 x i32]], [8 x [2 x i32]]* %11, i64 0, i64 %106
  %108 = getelementptr inbounds [2 x i32], [2 x i32]* %107, i64 0, i64 0
  %109 = load i32, i32* %108, align 8
  %110 = add nsw i32 %104, %109
  %111 = sext i32 %110 to i64
  %112 = getelementptr inbounds [9 x [9 x i32]], [9 x [9 x i32]]* %9, i64 0, i64 %111
  %113 = load i32, i32* %6, align 4
  %114 = load i32, i32* %5, align 4
  %115 = sext i32 %114 to i64
  %116 = getelementptr inbounds [8 x [2 x i32]], [8 x [2 x i32]]* %11, i64 0, i64 %115
  %117 = getelementptr inbounds [2 x i32], [2 x i32]* %116, i64 0, i64 1
  %118 = load i32, i32* %117, align 4
  %119 = add nsw i32 %113, %118
  %120 = sext i32 %119 to i64
  %121 = getelementptr inbounds [9 x i32], [9 x i32]* %112, i64 0, i64 %120
  store i32 %103, i32* %121, align 4
  br label %122

122:                                              ; preds = %76
  %123 = load i32, i32* %5, align 4
  %124 = add nsw i32 %123, 1
  store i32 %124, i32* %5, align 4
  br label %73

125:                                              ; preds = %73
  br label %126

126:                                              ; preds = %125
  %127 = load i32, i32* %6, align 4
  %128 = add nsw i32 %127, 1
  store i32 %128, i32* %6, align 4
  br label %45

129:                                              ; preds = %45
  br label %130

130:                                              ; preds = %129
  %131 = load i32, i32* %7, align 4
  %132 = add nsw i32 %131, 1
  store i32 %132, i32* %7, align 4
  br label %37

133:                                              ; preds = %37
  br label %134

134:                                              ; preds = %133
  %135 = load i32, i32* %4, align 4
  %136 = add nsw i32 %135, 1
  store i32 %136, i32* %4, align 4
  br label %20

137:                                              ; preds = %20
  store i32 0, i32* %7, align 4
  br label %138

138:                                              ; preds = %171, %137
  %139 = load i32, i32* %7, align 4
  %140 = icmp slt i32 %139, 9
  br i1 %140, label %141, label %174

141:                                              ; preds = %138
  store i32 0, i32* %6, align 4
  br label %142

142:                                              ; preds = %167, %141
  %143 = load i32, i32* %6, align 4
  %144 = icmp slt i32 %143, 9
  br i1 %144, label %145, label %170

145:                                              ; preds = %142
  %146 = load i32, i32* %6, align 4
  %147 = icmp ne i32 %146, 8
  br i1 %147, label %148, label %157

148:                                              ; preds = %145
  %149 = load i32, i32* %7, align 4
  %150 = sext i32 %149 to i64
  %151 = getelementptr inbounds [9 x [9 x i32]], [9 x [9 x i32]]* %9, i64 0, i64 %150
  %152 = load i32, i32* %6, align 4
  %153 = sext i32 %152 to i64
  %154 = getelementptr inbounds [9 x i32], [9 x i32]* %151, i64 0, i64 %153
  %155 = load i32, i32* %154, align 4
  %156 = call i32 (i8*, ...) @printf(i8* getelementptr inbounds ([4 x i8], [4 x i8]* @.str.1, i64 0, i64 0), i32 %155)
  br label %166

157:                                              ; preds = %145
  %158 = load i32, i32* %7, align 4
  %159 = sext i32 %158 to i64
  %160 = getelementptr inbounds [9 x [9 x i32]], [9 x [9 x i32]]* %9, i64 0, i64 %159
  %161 = load i32, i32* %6, align 4
  %162 = sext i32 %161 to i64
  %163 = getelementptr inbounds [9 x i32], [9 x i32]* %160, i64 0, i64 %162
  %164 = load i32, i32* %163, align 4
  %165 = call i32 (i8*, ...) @printf(i8* getelementptr inbounds ([4 x i8], [4 x i8]* @.str.2, i64 0, i64 0), i32 %164)
  br label %166

166:                                              ; preds = %157, %148
  br label %167

167:                                              ; preds = %166
  %168 = load i32, i32* %6, align 4
  %169 = add nsw i32 %168, 1
  store i32 %169, i32* %6, align 4
  br label %142

170:                                              ; preds = %142
  br label %171

171:                                              ; preds = %170
  %172 = load i32, i32* %7, align 4
  %173 = add nsw i32 %172, 1
  store i32 %173, i32* %7, align 4
  br label %138

174:                                              ; preds = %138
  %175 = load i32, i32* %1, align 4
  ret i32 %175
}

; Function Attrs: argmemonly nounwind willreturn
declare void @llvm.memset.p0i8.i64(i8* nocapture writeonly, i8, i64, i1 immarg) #1

; Function Attrs: argmemonly nounwind willreturn
declare void @llvm.memcpy.p0i8.p0i8.i64(i8* noalias nocapture writeonly, i8* noalias nocapture readonly, i64, i1 immarg) #1

declare dso_local i32 @__isoc99_scanf(i8*, ...) #2

declare dso_local i32 @printf(i8*, ...) #2


!llvm.module.flags = !{!0}
!llvm.ident = !{!1}

!0 = !{i32 1, !"wchar_size", i32 4}
!1 = !{!"clang version 10.0.0-4ubuntu1 "}
