; ModuleID = 'source-C-CXX/47/1644.c'
source_filename = "source-C-CXX/47/1644.c"
target datalayout = "e-m:e-p270:32:32-p271:32:32-p272:64:64-i64:64-f80:128-n8:16:32:64-S128"
target triple = "x86_64-pc-linux-gnu"

@.str = private unnamed_addr constant [6 x i8] c"%d %d\00", align 1
@.str.1 = private unnamed_addr constant [4 x i8] c"%d \00", align 1
@.str.2 = private unnamed_addr constant [4 x i8] c"%d\0A\00", align 1

; Function Attrs: nofree nounwind sspstrong uwtable
define dso_local i32 @main() local_unnamed_addr #0 {
  %1 = alloca i32, align 4
  %2 = alloca i32, align 4
  %3 = alloca [9 x [9 x i32]], align 16
  %4 = alloca [9 x [9 x i32]], align 16
  %5 = bitcast i32* %1 to i8*
  call void @llvm.lifetime.start.p0i8(i64 4, i8* nonnull %5) #5
  store i32 0, i32* %1, align 4, !tbaa !5
  %6 = bitcast i32* %2 to i8*
  call void @llvm.lifetime.start.p0i8(i64 4, i8* nonnull %6) #5
  store i32 0, i32* %2, align 4, !tbaa !5
  %7 = bitcast [9 x [9 x i32]]* %3 to i8*
  call void @llvm.lifetime.start.p0i8(i64 324, i8* nonnull %7) #5
  call void @llvm.memset.p0i8.i64(i8* noundef nonnull align 16 dereferenceable(324) %7, i8 0, i64 324, i1 false)
  %8 = bitcast [9 x [9 x i32]]* %4 to i8*
  call void @llvm.lifetime.start.p0i8(i64 324, i8* nonnull %8) #5
  call void @llvm.memset.p0i8.i64(i8* noundef nonnull align 16 dereferenceable(324) %8, i8 0, i64 324, i1 false)
  %9 = call i32 (i8*, ...) @__isoc99_scanf(i8* getelementptr inbounds ([6 x i8], [6 x i8]* @.str, i64 0, i64 0), i32* nonnull %1, i32* nonnull %2)
  %10 = load i32, i32* %1, align 4, !tbaa !5
  %11 = getelementptr inbounds [9 x [9 x i32]], [9 x [9 x i32]]* %3, i64 0, i64 4, i64 4
  store i32 %10, i32* %11, align 16, !tbaa !5
  %12 = load i32, i32* %2, align 4, !tbaa !5
  %13 = icmp sgt i32 %12, 0
  br i1 %13, label %15, label %14

14:                                               ; preds = %69, %0
  br label %75

15:                                               ; preds = %0, %69
  %16 = phi i32 [ %72, %69 ], [ 5, %0 ]
  %17 = phi i64 [ %71, %69 ], [ 4, %0 ]
  %18 = phi i32 [ %70, %69 ], [ 0, %0 ]
  %19 = icmp eq i32 %18, 0
  br i1 %19, label %21, label %20

20:                                               ; preds = %15
  call void @llvm.memcpy.p0i8.p0i8.i64(i8* noundef nonnull align 16 dereferenceable(324) %7, i8* noundef nonnull align 16 dereferenceable(324) %8, i64 324, i1 false)
  call void @llvm.memset.p0i8.i64(i8* noundef nonnull align 16 dereferenceable(324) %8, i8 0, i64 324, i1 false)
  br label %21

21:                                               ; preds = %20, %15
  %22 = sub nsw i32 4, %18
  %23 = add nuw nsw i32 %18, 4
  %24 = icmp sgt i32 %22, %23
  br i1 %24, label %69, label %25

25:                                               ; preds = %21
  %26 = sext i32 %16 to i64
  br label %27

27:                                               ; preds = %25, %67
  %28 = phi i64 [ %17, %25 ], [ %29, %67 ]
  %29 = add nsw i64 %28, 1
  %30 = add nsw i64 %28, -1
  br label %31

31:                                               ; preds = %27, %31
  %32 = phi i64 [ %17, %27 ], [ %45, %31 ]
  %33 = getelementptr inbounds [9 x [9 x i32]], [9 x [9 x i32]]* %4, i64 0, i64 %28, i64 %32
  %34 = load i32, i32* %33, align 4, !tbaa !5
  %35 = getelementptr inbounds [9 x [9 x i32]], [9 x [9 x i32]]* %3, i64 0, i64 %28, i64 %32
  %36 = load i32, i32* %35, align 4, !tbaa !5
  %37 = shl nsw i32 %36, 1
  %38 = add nsw i32 %37, %34
  store i32 %38, i32* %33, align 4, !tbaa !5
  %39 = getelementptr inbounds [9 x [9 x i32]], [9 x [9 x i32]]* %4, i64 0, i64 %29, i64 %32
  %40 = load i32, i32* %39, align 4, !tbaa !5
  %41 = add nsw i32 %40, %36
  store i32 %41, i32* %39, align 4, !tbaa !5
  %42 = getelementptr inbounds [9 x [9 x i32]], [9 x [9 x i32]]* %4, i64 0, i64 %30, i64 %32
  %43 = load i32, i32* %42, align 4, !tbaa !5
  %44 = add nsw i32 %43, %36
  store i32 %44, i32* %42, align 4, !tbaa !5
  %45 = add nsw i64 %32, 1
  %46 = getelementptr inbounds [9 x [9 x i32]], [9 x [9 x i32]]* %4, i64 0, i64 %28, i64 %45
  %47 = load i32, i32* %46, align 4, !tbaa !5
  %48 = add nsw i32 %47, %36
  store i32 %48, i32* %46, align 4, !tbaa !5
  %49 = add nsw i64 %32, -1
  %50 = getelementptr inbounds [9 x [9 x i32]], [9 x [9 x i32]]* %4, i64 0, i64 %28, i64 %49
  %51 = load i32, i32* %50, align 4, !tbaa !5
  %52 = add nsw i32 %51, %36
  store i32 %52, i32* %50, align 4, !tbaa !5
  %53 = getelementptr inbounds [9 x [9 x i32]], [9 x [9 x i32]]* %4, i64 0, i64 %29, i64 %45
  %54 = load i32, i32* %53, align 4, !tbaa !5
  %55 = add nsw i32 %54, %36
  store i32 %55, i32* %53, align 4, !tbaa !5
  %56 = getelementptr inbounds [9 x [9 x i32]], [9 x [9 x i32]]* %4, i64 0, i64 %29, i64 %49
  %57 = load i32, i32* %56, align 4, !tbaa !5
  %58 = add nsw i32 %57, %36
  store i32 %58, i32* %56, align 4, !tbaa !5
  %59 = getelementptr inbounds [9 x [9 x i32]], [9 x [9 x i32]]* %4, i64 0, i64 %30, i64 %45
  %60 = load i32, i32* %59, align 4, !tbaa !5
  %61 = add nsw i32 %60, %36
  store i32 %61, i32* %59, align 4, !tbaa !5
  %62 = getelementptr inbounds [9 x [9 x i32]], [9 x [9 x i32]]* %4, i64 0, i64 %30, i64 %49
  %63 = load i32, i32* %62, align 4, !tbaa !5
  %64 = add nsw i32 %63, %36
  store i32 %64, i32* %62, align 4, !tbaa !5
  %65 = trunc i64 %45 to i32
  %66 = icmp eq i32 %16, %65
  br i1 %66, label %67, label %31, !llvm.loop !9

67:                                               ; preds = %31
  %68 = icmp eq i64 %29, %26
  br i1 %68, label %69, label %27, !llvm.loop !11

69:                                               ; preds = %67, %21
  %70 = add nuw nsw i32 %18, 1
  %71 = add nsw i64 %17, -1
  %72 = add nuw i32 %16, 1
  %73 = icmp eq i32 %70, %12
  br i1 %73, label %14, label %15, !llvm.loop !12

74:                                               ; preds = %75
  call void @llvm.lifetime.end.p0i8(i64 324, i8* nonnull %8) #5
  call void @llvm.lifetime.end.p0i8(i64 324, i8* nonnull %7) #5
  call void @llvm.lifetime.end.p0i8(i64 4, i8* nonnull %6) #5
  call void @llvm.lifetime.end.p0i8(i64 4, i8* nonnull %5) #5
  ret i32 0

75:                                               ; preds = %14, %75
  %76 = phi i64 [ %104, %75 ], [ 0, %14 ]
  %77 = getelementptr inbounds [9 x [9 x i32]], [9 x [9 x i32]]* %4, i64 0, i64 %76, i64 8
  %78 = getelementptr inbounds [9 x [9 x i32]], [9 x [9 x i32]]* %4, i64 0, i64 %76, i64 0
  %79 = load i32, i32* %78, align 4, !tbaa !5
  %80 = call i32 (i8*, ...) @printf(i8* nonnull dereferenceable(1) getelementptr inbounds ([4 x i8], [4 x i8]* @.str.1, i64 0, i64 0), i32 %79)
  %81 = getelementptr inbounds [9 x [9 x i32]], [9 x [9 x i32]]* %4, i64 0, i64 %76, i64 1
  %82 = load i32, i32* %81, align 4, !tbaa !5
  %83 = call i32 (i8*, ...) @printf(i8* nonnull dereferenceable(1) getelementptr inbounds ([4 x i8], [4 x i8]* @.str.1, i64 0, i64 0), i32 %82)
  %84 = getelementptr inbounds [9 x [9 x i32]], [9 x [9 x i32]]* %4, i64 0, i64 %76, i64 2
  %85 = load i32, i32* %84, align 4, !tbaa !5
  %86 = call i32 (i8*, ...) @printf(i8* nonnull dereferenceable(1) getelementptr inbounds ([4 x i8], [4 x i8]* @.str.1, i64 0, i64 0), i32 %85)
  %87 = getelementptr inbounds [9 x [9 x i32]], [9 x [9 x i32]]* %4, i64 0, i64 %76, i64 3
  %88 = load i32, i32* %87, align 4, !tbaa !5
  %89 = call i32 (i8*, ...) @printf(i8* nonnull dereferenceable(1) getelementptr inbounds ([4 x i8], [4 x i8]* @.str.1, i64 0, i64 0), i32 %88)
  %90 = getelementptr inbounds [9 x [9 x i32]], [9 x [9 x i32]]* %4, i64 0, i64 %76, i64 4
  %91 = load i32, i32* %90, align 4, !tbaa !5
  %92 = call i32 (i8*, ...) @printf(i8* nonnull dereferenceable(1) getelementptr inbounds ([4 x i8], [4 x i8]* @.str.1, i64 0, i64 0), i32 %91)
  %93 = getelementptr inbounds [9 x [9 x i32]], [9 x [9 x i32]]* %4, i64 0, i64 %76, i64 5
  %94 = load i32, i32* %93, align 4, !tbaa !5
  %95 = call i32 (i8*, ...) @printf(i8* nonnull dereferenceable(1) getelementptr inbounds ([4 x i8], [4 x i8]* @.str.1, i64 0, i64 0), i32 %94)
  %96 = getelementptr inbounds [9 x [9 x i32]], [9 x [9 x i32]]* %4, i64 0, i64 %76, i64 6
  %97 = load i32, i32* %96, align 4, !tbaa !5
  %98 = call i32 (i8*, ...) @printf(i8* nonnull dereferenceable(1) getelementptr inbounds ([4 x i8], [4 x i8]* @.str.1, i64 0, i64 0), i32 %97)
  %99 = getelementptr inbounds [9 x [9 x i32]], [9 x [9 x i32]]* %4, i64 0, i64 %76, i64 7
  %100 = load i32, i32* %99, align 4, !tbaa !5
  %101 = call i32 (i8*, ...) @printf(i8* nonnull dereferenceable(1) getelementptr inbounds ([4 x i8], [4 x i8]* @.str.1, i64 0, i64 0), i32 %100)
  %102 = load i32, i32* %77, align 4, !tbaa !5
  %103 = call i32 (i8*, ...) @printf(i8* nonnull dereferenceable(1) getelementptr inbounds ([4 x i8], [4 x i8]* @.str.2, i64 0, i64 0), i32 %102)
  %104 = add nuw nsw i64 %76, 1
  %105 = icmp eq i64 %104, 9
  br i1 %105, label %74, label %75, !llvm.loop !13
}

; Function Attrs: argmemonly mustprogress nofree nosync nounwind willreturn
declare void @llvm.lifetime.start.p0i8(i64 immarg, i8* nocapture) #1

; Function Attrs: argmemonly mustprogress nofree nounwind willreturn writeonly
declare void @llvm.memset.p0i8.i64(i8* nocapture writeonly, i8, i64, i1 immarg) #2

; Function Attrs: argmemonly mustprogress nofree nounwind willreturn
declare void @llvm.memcpy.p0i8.p0i8.i64(i8* noalias nocapture writeonly, i8* noalias nocapture readonly, i64, i1 immarg) #3

; Function Attrs: nofree nounwind
declare noundef i32 @__isoc99_scanf(i8* nocapture noundef readonly, ...) local_unnamed_addr #4

; Function Attrs: nofree nounwind
declare noundef i32 @printf(i8* nocapture noundef readonly, ...) local_unnamed_addr #4

; Function Attrs: argmemonly mustprogress nofree nosync nounwind willreturn
declare void @llvm.lifetime.end.p0i8(i64 immarg, i8* nocapture) #1


!llvm.module.flags = !{!0, !1, !2, !3}
!llvm.ident = !{!4}

!0 = !{i32 1, !"wchar_size", i32 4}
!1 = !{i32 7, !"PIC Level", i32 2}
!2 = !{i32 7, !"PIE Level", i32 2}
!3 = !{i32 7, !"uwtable", i32 1}
!4 = !{!"clang version 13.0.0"}
!5 = !{!6, !6, i64 0}
!6 = !{!"int", !7, i64 0}
!7 = !{!"omnipotent char", !8, i64 0}
!8 = !{!"Simple C/C++ TBAA"}
!9 = distinct !{!9, !10}
!10 = !{!"llvm.loop.mustprogress"}
!11 = distinct !{!11, !10}
!12 = distinct !{!12, !10}
!13 = distinct !{!13, !10}
